; Function Attrs: nounwind uwtable
define hidden i32 @EC_POINT_make_affine(ptr noundef %0, ptr noundef %1, ptr noundef %2) local_unnamed_addr #1 {
  %4 = load ptr, ptr %0, align 8, !tbaa !11
  %5 = load ptr, ptr %1, align 8, !tbaa !23
  %.not = icmp eq ptr %4, %5
  br i1 %.not, label %7, label %6

6:                                                ; preds = %3
  tail call void @ERR_put_error(i32 noundef 15, i32 noundef 0, i32 noundef 106, ptr noundef nonnull @.str, i32 noundef 790) #11
  br label %9

7:                                                ; preds = %3
  %8 = tail call i32 @ec_GFp_simple_make_affine(ptr noundef nonnull %0, ptr noundef nonnull %1, ptr noundef %2) #11
  br label %9

9:                                                ; preds = %7, %6
  %.0 = phi i32 [ 0, %6 ], [ %8, %7 ]
  ret i32 %.0
}